target datalayout = "e-m:e-p270:32:32-p271:32:32-p272:64:64-i64:64-i128:128-f80:128-n8:16:32:64-S128"
target triple = "x86_64-pc-linux-gnu"

%struct.SDL_TLSEntry = type { i64, ptr, ptr }

@SDL_generic_TLS_mutex = internal global ptr null, align 8
@SDL_generic_TLS = internal global ptr null, align 8

; Function Attrs: nounwind uwtable
define hidden ptr @SDL_Generic_GetTLSData() #0 {
  %1 = alloca i64, align 8
  %2 = alloca ptr, align 8
  %3 = alloca ptr, align 8
  call void @llvm.lifetime.start.p0(i64 8, ptr %1) #6
  %4 = call i64 @SDL_GetCurrentThreadID_REAL()
  store i64 %4, ptr %1, align 8
  call void @llvm.lifetime.start.p0(i64 8, ptr %2) #6
  call void @llvm.lifetime.start.p0(i64 8, ptr %3) #6
  store ptr null, ptr %3, align 8
  %5 = load ptr, ptr @SDL_generic_TLS_mutex, align 8
  call void @SDL_LockMutex_REAL(ptr noundef %5)
  %6 = load ptr, ptr @SDL_generic_TLS, align 8
  store ptr %6, ptr %2, align 8
  br label %7

7:                                                ; preds = %21, %0
  %8 = load ptr, ptr %2, align 8
  %9 = icmp ne ptr %8, null
  br i1 %9, label %10, label %25

10:                                               ; preds = %7
  %11 = load ptr, ptr %2, align 8
  %12 = getelementptr inbounds nuw %struct.SDL_TLSEntry, ptr %11, i32 0, i32 0
  %13 = load i64, ptr %12, align 8
  %14 = load i64, ptr %1, align 8
  %15 = icmp eq i64 %13, %14
  br i1 %15, label %16, label %20

16:                                               ; preds = %10
  %17 = load ptr, ptr %2, align 8
  %18 = getelementptr inbounds nuw %struct.SDL_TLSEntry, ptr %17, i32 0, i32 1
  %19 = load ptr, ptr %18, align 8
  store ptr %19, ptr %3, align 8
  br label %25

20:                                               ; preds = %10
  br label %21

21:                                               ; preds = %20
  %22 = load ptr, ptr %2, align 8
  %23 = getelementptr inbounds nuw %struct.SDL_TLSEntry, ptr %22, i32 0, i32 2
  %24 = load ptr, ptr %23, align 8
  store ptr %24, ptr %2, align 8
  br label %7, !llvm.loop !6

25:                                               ; preds = %16, %7
  %26 = load ptr, ptr @SDL_generic_TLS_mutex, align 8
  call void @SDL_UnlockMutex_REAL(ptr noundef %26)
  %27 = load ptr, ptr %3, align 8
  call void @llvm.lifetime.end.p0(i64 8, ptr %3) #6
  call void @llvm.lifetime.end.p0(i64 8, ptr %2) #6
  call void @llvm.lifetime.end.p0(i64 8, ptr %1) #6
  ret ptr %27
}