; Function Attrs: nounwind uwtable
define hidden ptr @SDL_Generic_GetTLSData() local_unnamed_addr #0 {
  %1 = tail call i64 @SDL_GetCurrentThreadID_REAL() #6
  %2 = load ptr, ptr @SDL_generic_TLS_mutex, align 8
  tail call void @SDL_LockMutex_REAL(ptr noundef %2) #6
  %.057 = load ptr, ptr @SDL_generic_TLS, align 8
  %.not8 = icmp eq ptr %.057, null
  br i1 %.not8, label %.loopexit, label %.lr.ph

.lr.ph:                                           ; preds = %0, %8
  %.059 = phi ptr [ %.05, %8 ], [ %.057, %0 ]
  %3 = load i64, ptr %.059, align 8
  %4 = icmp eq i64 %3, %1
  br i1 %4, label %5, label %8

5:                                                ; preds = %.lr.ph
  %6 = getelementptr inbounds nuw i8, ptr %.059, i64 8
  %7 = load ptr, ptr %6, align 8
  br label %.loopexit

8:                                                ; preds = %.lr.ph
  %9 = getelementptr inbounds nuw i8, ptr %.059, i64 16
  %.05 = load ptr, ptr %9, align 8
  %.not = icmp eq ptr %.05, null
  br i1 %.not, label %.loopexit, label %.lr.ph, !llvm.loop !5

.loopexit:                                        ; preds = %8, %0, %5
  %.0 = phi ptr [ %7, %5 ], [ null, %0 ], [ null, %8 ]
  %10 = load ptr, ptr @SDL_generic_TLS_mutex, align 8
  tail call void @SDL_UnlockMutex_REAL(ptr noundef %10) #6
  ret ptr %.0
}